; Function Attrs: mustprogress nofree norecurse nosync nounwind memory(argmem: readwrite, inaccessiblemem: readwrite) uwtable
define void @_ZN5faiss8fvec_subEmPKfS1_Pf(i64 noundef %0, ptr noundef readonly captures(none) %1, ptr noundef readonly captures(none) %2, ptr noundef writeonly captures(none) %3) local_unnamed_addr #13 {
  %.sroa.0 = alloca [8 x i32], align 4
  %5 = alloca %"struct.faiss::simd8float32", align 4
  %6 = alloca %"struct.faiss::simd8float32", align 4
  %7 = alloca %"struct.faiss::simd8float32", align 4
  %8 = icmp ugt i64 %0, 7
  br i1 %8, label %.lr.ph, label %.preheader

.preheader:                                       ; preds = %_ZNK5faiss12simd8float32miERKS0_.exit, %4
  %.0.lcssa = phi i64 [ 0, %4 ], [ %20, %_ZNK5faiss12simd8float32miERKS0_.exit ]
  %9 = icmp ult i64 %.0.lcssa, %0
  br i1 %9, label %.lr.ph19, label %._crit_edge

.lr.ph:                                           ; preds = %4, %_ZNK5faiss12simd8float32miERKS0_.exit
  %.017 = phi i64 [ %20, %_ZNK5faiss12simd8float32miERKS0_.exit ], [ 0, %4 ]
  call void @llvm.lifetime.start.p0(i64 32, ptr nonnull %.sroa.0)
  call void @llvm.lifetime.start.p0(i64 32, ptr nonnull %5) #17
  call void @llvm.lifetime.start.p0(i64 32, ptr nonnull %6) #17
  %10 = getelementptr inbounds nuw float, ptr %1, i64 %.017
  call void @llvm.memcpy.p0.p0.i64(ptr noundef nonnull align 4 dereferenceable(32) %5, ptr noundef nonnull align 1 dereferenceable(32) %10, i64 32, i1 false)
  %11 = getelementptr inbounds nuw float, ptr %2, i64 %.017
  call void @llvm.memcpy.p0.p0.i64(ptr noundef nonnull align 4 dereferenceable(32) %6, ptr noundef nonnull align 1 dereferenceable(32) %11, i64 32, i1 false)
  call void @llvm.lifetime.start.p0(i64 32, ptr nonnull %7) #17
  tail call void @llvm.experimental.noalias.scope.decl(metadata !136)
  tail call void @llvm.experimental.noalias.scope.decl(metadata !139)
  br label %12

12:                                               ; preds = %12, %.lr.ph
  %indvars.iv.i.i = phi i64 [ 0, %.lr.ph ], [ %indvars.iv.next.i.i, %12 ]
  %13 = getelementptr inbounds nuw [8 x float], ptr %5, i64 0, i64 %indvars.iv.i.i
  %14 = load float, ptr %13, align 4, !tbaa !54, !noalias !142
  %15 = getelementptr inbounds nuw [8 x float], ptr %6, i64 0, i64 %indvars.iv.i.i
  %16 = load float, ptr %15, align 4, !tbaa !54, !noalias !142
  %17 = fsub float %14, %16
  %18 = getelementptr inbounds nuw [8 x float], ptr %7, i64 0, i64 %indvars.iv.i.i
  store float %17, ptr %18, align 4, !tbaa !54, !alias.scope !142
  %indvars.iv.next.i.i = add nuw nsw i64 %indvars.iv.i.i, 1
  %exitcond.not.i.i = icmp eq i64 %indvars.iv.next.i.i, 8
  br i1 %exitcond.not.i.i, label %_ZNK5faiss12simd8float32miERKS0_.exit, label %12, !llvm.loop !56

_ZNK5faiss12simd8float32miERKS0_.exit:            ; preds = %12
  call void @llvm.memcpy.p0.p0.i64(ptr noundef nonnull align 4 dereferenceable(32) %.sroa.0, ptr noundef nonnull align 4 dereferenceable(32) %7, i64 32, i1 false)
  call void @llvm.lifetime.end.p0(i64 32, ptr nonnull %7) #17
  %19 = getelementptr inbounds nuw float, ptr %3, i64 %.017
  call void @llvm.memcpy.p0.p0.i64(ptr noundef nonnull align 1 dereferenceable(32) %19, ptr noundef nonnull align 4 dereferenceable(32) %.sroa.0, i64 32, i1 false)
  call void @llvm.lifetime.end.p0(i64 32, ptr nonnull %6) #17
  call void @llvm.lifetime.end.p0(i64 32, ptr nonnull %5) #17
  call void @llvm.lifetime.end.p0(i64 32, ptr nonnull %.sroa.0)
  %20 = add i64 %.017, 8
  %21 = or disjoint i64 %20, 7
  %22 = icmp ult i64 %21, %0
  br i1 %22, label %.lr.ph, label %.preheader, !llvm.loop !143

.lr.ph19:                                         ; preds = %.preheader, %.lr.ph19
  %.118 = phi i64 [ %29, %.lr.ph19 ], [ %.0.lcssa, %.preheader ]
  %23 = getelementptr inbounds nuw float, ptr %1, i64 %.118
  %24 = load float, ptr %23, align 4, !tbaa !4
  %25 = getelementptr inbounds nuw float, ptr %2, i64 %.118
  %26 = load float, ptr %25, align 4, !tbaa !4
  %27 = fsub float %24, %26
  %28 = getelementptr inbounds nuw float, ptr %3, i64 %.118
  store float %27, ptr %28, align 4, !tbaa !4
  %29 = add nuw i64 %.118, 1
  %exitcond.not = icmp eq i64 %29, %0
  br i1 %exitcond.not, label %._crit_edge, label %.lr.ph19, !llvm.loop !144

._crit_edge:                                      ; preds = %.lr.ph19, %.preheader
  ret void
}